target datalayout = "e-m:e-p270:32:32-p271:32:32-p272:64:64-i64:64-i128:128-f80:128-n8:16:32:64-S128"
target triple = "x86_64-pc-linux-gnu"

%struct.AVProbeData = type { ptr, ptr, i32, ptr }

; Function Attrs: alwaysinline nounwind willreturn memory(none) uwtable
define internal i32 @av_bswap32(i32 noundef %0) #10 {
  %2 = alloca i32, align 4
  store i32 %0, ptr %2, align 4, !tbaa !28
  %3 = load i32, ptr %2, align 4, !tbaa !28
  %4 = shl i32 %3, 8
  %5 = and i32 %4, 65280
  %6 = load i32, ptr %2, align 4, !tbaa !28
  %7 = lshr i32 %6, 8
  %8 = and i32 %7, 255
  %9 = or i32 %5, %8
  %10 = shl i32 %9, 16
  %11 = load i32, ptr %2, align 4, !tbaa !28
  %12 = lshr i32 %11, 16
  %13 = shl i32 %12, 8
  %14 = and i32 %13, 65280
  %15 = load i32, ptr %2, align 4, !tbaa !28
  %16 = lshr i32 %15, 16
  %17 = lshr i32 %16, 8
  %18 = and i32 %17, 255
  %19 = or i32 %14, %18
  %20 = or i32 %10, %19
  ret i32 %20
}

; Function Attrs: inlinehint nounwind willreturn memory(none) uwtable
define internal i64 @av_bswap64(i64 noundef %0) #11 {
  %2 = alloca i64, align 8
  store i64 %0, ptr %2, align 8, !tbaa !106
  %3 = load i64, ptr %2, align 8, !tbaa !106
  %4 = trunc i64 %3 to i32
  %5 = call i32 @av_bswap32(i32 noundef %4) #15
  %6 = zext i32 %5 to i64
  %7 = shl i64 %6, 32
  %8 = load i64, ptr %2, align 8, !tbaa !106
  %9 = lshr i64 %8, 32
  %10 = trunc i64 %9 to i32
  %11 = call i32 @av_bswap32(i32 noundef %10) #15
  %12 = zext i32 %11 to i64
  %13 = or i64 %7, %12
  ret i64 %13
}

; Function Attrs: nounwind uwtable
define internal i32 @xpm_probe(ptr noundef %0) #0 {
  %2 = alloca i32, align 4
  %3 = alloca ptr, align 8
  %4 = alloca ptr, align 8
  %5 = alloca i32, align 4
  store ptr %0, ptr %3, align 8, !tbaa !139
  call void @llvm.lifetime.start.p0(i64 8, ptr %4) #12
  %6 = load ptr, ptr %3, align 8, !tbaa !139
  %7 = getelementptr inbounds nuw %struct.AVProbeData, ptr %6, i32 0, i32 1
  %8 = load ptr, ptr %7, align 8, !tbaa !96
  store ptr %8, ptr %4, align 8, !tbaa !76
  %9 = load ptr, ptr %4, align 8, !tbaa !76
  %10 = load i64, ptr %9, align 1, !tbaa !77
  %11 = call i64 @av_bswap64(i64 noundef %10) #15
  %12 = icmp eq i64 %11, 3398564432480903210
  br i1 %12, label %13, label %20

13:                                               ; preds = %1
  %14 = load ptr, ptr %4, align 8, !tbaa !76
  %15 = getelementptr inbounds i8, ptr %14, i64 8
  %16 = load i8, ptr %15, align 1, !tbaa !77
  %17 = zext i8 %16 to i32
  %18 = icmp eq i32 %17, 47
  br i1 %18, label %19, label %20

19:                                               ; preds = %13
  store i32 99, ptr %2, align 4
  store i32 1, ptr %5, align 4
  br label %21

20:                                               ; preds = %13, %1
  store i32 0, ptr %2, align 4
  store i32 1, ptr %5, align 4
  br label %21

21:                                               ; preds = %20, %19
  call void @llvm.lifetime.end.p0(i64 8, ptr %4) #12
  %22 = load i32, ptr %2, align 4
  ret i32 %22
}